; ModuleID = '54/205.c'
source_filename = "54/205.c"
target datalayout = "e-m:e-p270:32:32-p271:32:32-p272:64:64-i64:64-f80:128-n8:16:32:64-S128"
target triple = "x86_64-pc-linux-gnu"

@.str = private unnamed_addr constant [6 x i8] c"%d %d\00", align 1
@.str.1 = private unnamed_addr constant [4 x i8] c"%d\0A\00", align 1

; Function Attrs: noinline nounwind uwtable
define dso_local i32 @main() #0 {
  %1 = alloca i32, align 4
  %2 = alloca i32, align 4
  %3 = alloca i32, align 4
  %4 = alloca i32, align 4
  %5 = alloca i32, align 4
  %6 = alloca i32, align 4
  store i32 0, i32* %1, align 4
  %7 = call i32 (i8*, ...) @__isoc99_scanf(i8* getelementptr inbounds ([6 x i8], [6 x i8]* @.str, i64 0, i64 0), i32* %5, i32* %4)
  store i32 1, i32* %6, align 4
  store i32 1, i32* %2, align 4
  store i32 1, i32* %3, align 4
  br label %8

8:                                                ; preds = %38, %0
  %9 = load i32, i32* %5, align 4
  %10 = icmp sle i32 1, %9
  br i1 %10, label %11, label %39

11:                                               ; preds = %8
  %12 = load i32, i32* %6, align 4
  %13 = load i32, i32* %5, align 4
  %14 = mul nsw i32 %12, %13
  %15 = load i32, i32* %4, align 4
  %16 = add nsw i32 %14, %15
  store i32 %16, i32* %6, align 4
  %17 = load i32, i32* %2, align 4
  %18 = load i32, i32* %5, align 4
  %19 = icmp eq i32 %17, %18
  br i1 %19, label %20, label %21

20:                                               ; preds = %11
  br label %39

21:                                               ; preds = %11
  %22 = load i32, i32* %6, align 4
  %23 = load i32, i32* %5, align 4
  %24 = sub nsw i32 %23, 1
  %25 = srem i32 %22, %24
  %26 = icmp eq i32 %25, 0
  br i1 %26, label %27, label %34

27:                                               ; preds = %21
  %28 = load i32, i32* %6, align 4
  %29 = load i32, i32* %5, align 4
  %30 = sub nsw i32 %29, 1
  %31 = sdiv i32 %28, %30
  store i32 %31, i32* %6, align 4
  %32 = load i32, i32* %2, align 4
  %33 = add nsw i32 %32, 1
  store i32 %33, i32* %2, align 4
  br label %38

34:                                               ; preds = %21
  %35 = load i32, i32* %3, align 4
  %36 = add nsw i32 %35, 1
  store i32 %36, i32* %3, align 4
  %37 = load i32, i32* %3, align 4
  store i32 %37, i32* %6, align 4
  store i32 1, i32* %2, align 4
  br label %38

38:                                               ; preds = %34, %27
  br label %8

39:                                               ; preds = %20, %8
  %40 = load i32, i32* %6, align 4
  %41 = call i32 (i8*, ...) @printf(i8* getelementptr inbounds ([4 x i8], [4 x i8]* @.str.1, i64 0, i64 0), i32 %40)
  %42 = load i32, i32* %1, align 4
  ret i32 %42
}

declare dso_local i32 @__isoc99_scanf(i8*, ...) #1

declare dso_local i32 @printf(i8*, ...) #1


!llvm.module.flags = !{!0}
!llvm.ident = !{!1}

!0 = !{i32 1, !"wchar_size", i32 4}
!1 = !{!"clang version 10.0.0-4ubuntu1 "}
